; Function Attrs: nounwind sspstrong uwtable
define internal void @loop_init(ptr noundef captures(none) initializes((8, 12)) %0, ptr noundef readonly captures(none) %1, i64 noundef %2) #0 {
  %spec.store.select = tail call i64 @llvm.umin.i64(i64 %2, i64 1024)
  %4 = getelementptr inbounds nuw i8, ptr %0, i64 16
  %5 = load ptr, ptr %4, align 8, !tbaa !15
  %6 = tail call nonnull ptr @ruby_xrealloc2(ptr noundef %5, i64 noundef %spec.store.select, i64 noundef 4) #11
  store ptr %6, ptr %4, align 8, !tbaa !15
  %7 = trunc nuw nsw i64 %spec.store.select to i32
  %8 = getelementptr inbounds nuw i8, ptr %0, i64 8
  store i32 %7, ptr %8, align 8, !tbaa !20
  %.not.i = icmp eq i64 %2, 0
  br i1 %.not.i, label %ruby_nonempty_memcpy.exit, label %9

9:                                                ; preds = %3
  %10 = shl nuw nsw i64 %spec.store.select, 2
  tail call void @llvm.memcpy.p0.p0.i64(ptr noundef nonnull align 1 %6, ptr noundef nonnull readonly align 1 %1, i64 noundef range(i64 1, 17179869181) %10, i1 noundef false) #10
  br label %ruby_nonempty_memcpy.exit

ruby_nonempty_memcpy.exit:                        ; preds = %3, %9
  ret void
}